; Function Attrs: mustprogress nofree norecurse nosync nounwind null_pointer_is_valid sspstrong willreturn memory(argmem: read) uwtable
define internal range(i32 0, 2) i32 @rlc_channel_equal(ptr noundef readonly captures(none) %0, ptr noundef readonly captures(none) %1) #9 {
  %3 = load i32, ptr %0, align 4
  %.not = icmp eq i32 %3, 0
  %.pre = load i32, ptr %1, align 4
  %.not26 = icmp eq i32 %.pre, 0
  %or.cond = select i1 %.not, i1 %.not26, i1 false
  br i1 %or.cond, label %24, label %4

4:                                                ; preds = %2
  %5 = icmp eq i32 %3, %.pre
  br i1 %5, label %6, label %66

6:                                                ; preds = %4
  %7 = getelementptr inbounds nuw i8, ptr %0, i64 12
  %8 = load i8, ptr %7, align 4
  %9 = getelementptr inbounds nuw i8, ptr %1, i64 12
  %10 = load i8, ptr %9, align 4
  %11 = icmp eq i8 %8, %10
  br i1 %11, label %12, label %66

12:                                               ; preds = %6
  %13 = getelementptr inbounds nuw i8, ptr %0, i64 20
  %14 = load i32, ptr %13, align 4
  %15 = getelementptr inbounds nuw i8, ptr %1, i64 20
  %16 = load i32, ptr %15, align 4
  %17 = icmp eq i32 %14, %16
  br i1 %17, label %18, label %66

18:                                               ; preds = %12
  %19 = getelementptr inbounds nuw i8, ptr %0, i64 13
  %20 = load i8, ptr %19, align 1
  %21 = getelementptr inbounds nuw i8, ptr %1, i64 13
  %22 = load i8, ptr %21, align 1
  %23 = icmp eq i8 %20, %22
  br label %66

24:                                               ; preds = %2
  %25 = getelementptr inbounds nuw i8, ptr %0, i64 4
  %26 = load i16, ptr %25, align 4
  %27 = getelementptr inbounds nuw i8, ptr %1, i64 4
  %28 = load i16, ptr %27, align 4
  %29 = icmp eq i16 %26, %28
  br i1 %29, label %30, label %66

30:                                               ; preds = %24
  %31 = getelementptr inbounds nuw i8, ptr %0, i64 6
  %32 = load i16, ptr %31, align 2
  %33 = getelementptr inbounds nuw i8, ptr %1, i64 6
  %34 = load i16, ptr %33, align 2
  %35 = icmp eq i16 %32, %34
  br i1 %35, label %36, label %66

36:                                               ; preds = %30
  %37 = getelementptr inbounds nuw i8, ptr %0, i64 8
  %38 = load i8, ptr %37, align 4
  %39 = getelementptr inbounds nuw i8, ptr %1, i64 8
  %40 = load i8, ptr %39, align 4
  %41 = icmp eq i8 %38, %40
  br i1 %41, label %42, label %66

42:                                               ; preds = %36
  %43 = getelementptr inbounds nuw i8, ptr %0, i64 12
  %44 = load i8, ptr %43, align 4
  %45 = getelementptr inbounds nuw i8, ptr %1, i64 12
  %46 = load i8, ptr %45, align 4
  %47 = icmp eq i8 %44, %46
  br i1 %47, label %48, label %66

48:                                               ; preds = %42
  %49 = getelementptr inbounds nuw i8, ptr %0, i64 20
  %50 = load i32, ptr %49, align 4
  %51 = getelementptr inbounds nuw i8, ptr %1, i64 20
  %52 = load i32, ptr %51, align 4
  %53 = icmp eq i32 %50, %52
  br i1 %53, label %54, label %66

54:                                               ; preds = %48
  %55 = getelementptr inbounds nuw i8, ptr %0, i64 13
  %56 = load i8, ptr %55, align 1
  %57 = getelementptr inbounds nuw i8, ptr %1, i64 13
  %58 = load i8, ptr %57, align 1
  %59 = icmp eq i8 %56, %58
  br i1 %59, label %60, label %66

60:                                               ; preds = %54
  %61 = getelementptr inbounds nuw i8, ptr %0, i64 10
  %62 = load i16, ptr %61, align 2
  %63 = getelementptr inbounds nuw i8, ptr %1, i64 10
  %64 = load i16, ptr %63, align 2
  %65 = icmp eq i16 %62, %64
  br label %66

66:                                               ; preds = %24, %30, %36, %42, %48, %54, %60, %4, %6, %12, %18
  %.0.shrunk = phi i1 [ false, %12 ], [ false, %6 ], [ false, %4 ], [ %23, %18 ], [ false, %54 ], [ false, %48 ], [ false, %42 ], [ false, %36 ], [ false, %30 ], [ false, %24 ], [ %65, %60 ]
  %.0 = zext i1 %.0.shrunk to i32
  ret i32 %.0
}